; Function Attrs: nounwind uwtable
define ptr @l_Lake_stdFormat___at_Lake_InputFile_defaultFacetConfig___spec__1___boxed(ptr noundef %0, ptr noundef %1) #0 {
  %3 = ptrtoint ptr %0 to i64
  %4 = and i64 %3, 1
  %.not = icmp eq i64 %4, 0
  br i1 %.not, label %5, label %lean_dec.exit

5:                                                ; preds = %2
  %6 = load i32, ptr %0, align 4, !tbaa !8
  %7 = icmp sgt i32 %6, 1
  br i1 %7, label %8, label %10, !prof !11

8:                                                ; preds = %5
  %9 = add nsw i32 %6, -1
  store i32 %9, ptr %0, align 4, !tbaa !8
  br label %lean_dec.exit

10:                                               ; preds = %5
  %.not.i = icmp eq i32 %6, 0
  br i1 %.not.i, label %lean_dec.exit, label %11

11:                                               ; preds = %10
  tail call void @lean_dec_ref_cold(ptr noundef nonnull %0) #5
  br label %lean_dec.exit

lean_dec.exit:                                    ; preds = %11, %10, %8, %2
  %12 = and i64 %3, 510
  %13 = icmp eq i64 %12, 0
  br i1 %13, label %l_Lake_stdFormat___at_Lake_InputFile_defaultFacetConfig___spec__1.exit, label %14

14:                                               ; preds = %lean_dec.exit
  %15 = tail call ptr @l_Lake_mkRelPathString(ptr noundef %1) #5
  tail call void @lean_inc_heartbeat() #5
  %16 = tail call noalias ptr @mi_malloc_small(i64 noundef 16) #5
  %17 = icmp eq ptr %16, null
  br i1 %17, label %18, label %lean_alloc_ctor.exit.i

18:                                               ; preds = %14
  tail call void @lean_internal_panic_out_of_memory() #6
  unreachable

lean_alloc_ctor.exit.i:                           ; preds = %14
  %19 = getelementptr inbounds nuw i8, ptr %16, i64 4
  store i32 1, ptr %16, align 4, !tbaa !8
  store i32 50397200, ptr %19, align 4
  %20 = getelementptr inbounds nuw i8, ptr %16, i64 8
  store ptr %15, ptr %20, align 8, !tbaa !4
  %21 = tail call ptr @l_Lean_Json_compress(ptr noundef nonnull %16) #5
  br label %l_Lake_stdFormat___at_Lake_InputFile_defaultFacetConfig___spec__1.exit

l_Lake_stdFormat___at_Lake_InputFile_defaultFacetConfig___spec__1.exit: ; preds = %lean_dec.exit, %lean_alloc_ctor.exit.i
  %.0.i = phi ptr [ %21, %lean_alloc_ctor.exit.i ], [ %1, %lean_dec.exit ]
  ret ptr %.0.i
}